target datalayout = "e-m:e-p270:32:32-p271:32:32-p272:64:64-i64:64-i128:128-f80:128-n8:16:32:64-S128"
target triple = "x86_64-pc-linux-gnu"

%class.elapsedTimer = type <{ i64, i64, i8, [7 x i8] }>
%class.G1MonitoringScope = type { ptr, %class.TraceCollectorStats, %class.TraceMemoryManagerStats }
%class.TraceCollectorStats = type { %class.PerfTraceTimedEvent, ptr }
%class.PerfTraceTimedEvent = type { %class.PerfTraceTime, ptr }
%class.PerfTraceTime = type { %class.elapsedTimer, ptr }
%class.TraceMemoryManagerStats = type { ptr, i32, ptr, i8, i8, i8, i8, i8, i8, i8, i8 }

; Function Attrs: mustprogress nounwind uwtable
define hidden void @_ZN17G1MonitoringScopeD2Ev(ptr noundef nonnull align 8 dereferenceable(88) %0) unnamed_addr #1 align 2 {
  %2 = alloca ptr, align 8
  store ptr %0, ptr %2, align 8
  %3 = load ptr, ptr %2, align 8
  %4 = getelementptr inbounds %class.G1MonitoringScope, ptr %3, i32 0, i32 0
  %5 = load ptr, ptr %4, align 8
  call void @_ZN19G1MonitoringSupport12update_sizesEv(ptr noundef nonnull align 8 dereferenceable(752) %5)
  call void @_ZN13MemoryService18track_memory_usageEv()
  %6 = getelementptr inbounds %class.G1MonitoringScope, ptr %3, i32 0, i32 2
  call void @_ZN23TraceMemoryManagerStatsD1Ev(ptr noundef nonnull align 8 dereferenceable(32) %6) #9
  %7 = getelementptr inbounds %class.G1MonitoringScope, ptr %3, i32 0, i32 1
  call void @_ZN19TraceCollectorStatsD1Ev(ptr noundef nonnull align 8 dereferenceable(48) %7) #9
  ret void
}