; Function Attrs: mustprogress nounwind uwtable
define hidden void @_ZN17G1MonitoringScopeD2Ev(ptr noundef nonnull align 8 dereferenceable(88) %0) unnamed_addr #0 align 2 {
  %2 = load ptr, ptr %0, align 8
  tail call void @_ZN19G1MonitoringSupport12update_sizesEv(ptr noundef nonnull align 8 dereferenceable(752) %2)
  tail call void @_ZN13MemoryService18track_memory_usageEv() #10
  %3 = getelementptr inbounds i8, ptr %0, i64 56
  tail call void @_ZN23TraceMemoryManagerStatsD1Ev(ptr noundef nonnull align 8 dereferenceable(32) %3) #10
  %4 = getelementptr inbounds i8, ptr %0, i64 8
  tail call void @_ZN19TraceCollectorStatsD1Ev(ptr noundef nonnull align 8 dereferenceable(48) %4) #10
  ret void
}